; ModuleID = 'source-C-CXX/39/1018.c'
source_filename = "source-C-CXX/39/1018.c"
target datalayout = "e-m:e-p270:32:32-p271:32:32-p272:64:64-i64:64-f80:128-n8:16:32:64-S128"
target triple = "x86_64-pc-linux-gnu"

@.str = private unnamed_addr constant [11 x i8] c"%f%f%f%f%f\00", align 1
@.str.1 = private unnamed_addr constant [6 x i8] c"%.4lf\00", align 1
@.str.2 = private unnamed_addr constant [14 x i8] c"Invalid input\00", align 1

; Function Attrs: nofree nounwind sspstrong uwtable
define dso_local i32 @main() local_unnamed_addr #0 {
  %1 = alloca float, align 4
  %2 = alloca float, align 4
  %3 = alloca float, align 4
  %4 = alloca float, align 4
  %5 = alloca float, align 4
  %6 = bitcast float* %1 to i8*
  call void @llvm.lifetime.start.p0i8(i64 4, i8* nonnull %6) #4
  %7 = bitcast float* %2 to i8*
  call void @llvm.lifetime.start.p0i8(i64 4, i8* nonnull %7) #4
  %8 = bitcast float* %3 to i8*
  call void @llvm.lifetime.start.p0i8(i64 4, i8* nonnull %8) #4
  %9 = bitcast float* %4 to i8*
  call void @llvm.lifetime.start.p0i8(i64 4, i8* nonnull %9) #4
  %10 = bitcast float* %5 to i8*
  call void @llvm.lifetime.start.p0i8(i64 4, i8* nonnull %10) #4
  %11 = call i32 (i8*, ...) @__isoc99_scanf(i8* getelementptr inbounds ([11 x i8], [11 x i8]* @.str, i64 0, i64 0), float* nonnull %1, float* nonnull %2, float* nonnull %3, float* nonnull %4, float* nonnull %5)
  %12 = load float, float* %1, align 4, !tbaa !5
  %13 = load float, float* %2, align 4, !tbaa !5
  %14 = fadd float %12, %13
  %15 = load float, float* %3, align 4, !tbaa !5
  %16 = fadd float %14, %15
  %17 = load float, float* %4, align 4, !tbaa !5
  %18 = fadd float %16, %17
  %19 = fpext float %18 to double
  %20 = fmul double %19, 5.000000e-01
  %21 = fpext float %12 to double
  %22 = fsub double %20, %21
  %23 = fpext float %13 to double
  %24 = fsub double %20, %23
  %25 = fmul double %22, %24
  %26 = fpext float %15 to double
  %27 = fsub double %20, %26
  %28 = fmul double %27, %25
  %29 = fpext float %17 to double
  %30 = fsub double %20, %29
  %31 = fmul double %30, %28
  %32 = fmul float %12, %13
  %33 = fmul float %32, %15
  %34 = fmul float %33, %17
  %35 = fpext float %34 to double
  %36 = load float, float* %5, align 4, !tbaa !5
  %37 = fpext float %36 to double
  %38 = fmul double %37, 0x400921FB4D12D84A
  %39 = fdiv double %38, 3.600000e+02
  %40 = call double @cos(double %39) #4
  %41 = fmul double %40, %40
  %42 = fmul double %41, %35
  %43 = fsub double %31, %42
  %44 = fcmp ult double %43, 0.000000e+00
  br i1 %44, label %48, label %45

45:                                               ; preds = %0
  %46 = call double @sqrt(double %43) #4
  %47 = call i32 (i8*, ...) @printf(i8* nonnull dereferenceable(1) getelementptr inbounds ([6 x i8], [6 x i8]* @.str.1, i64 0, i64 0), double %46)
  br label %50

48:                                               ; preds = %0
  %49 = call i32 (i8*, ...) @printf(i8* nonnull dereferenceable(1) getelementptr inbounds ([14 x i8], [14 x i8]* @.str.2, i64 0, i64 0))
  br label %50

50:                                               ; preds = %48, %45
  call void @llvm.lifetime.end.p0i8(i64 4, i8* nonnull %10) #4
  call void @llvm.lifetime.end.p0i8(i64 4, i8* nonnull %9) #4
  call void @llvm.lifetime.end.p0i8(i64 4, i8* nonnull %8) #4
  call void @llvm.lifetime.end.p0i8(i64 4, i8* nonnull %7) #4
  call void @llvm.lifetime.end.p0i8(i64 4, i8* nonnull %6) #4
  ret i32 0
}

; Function Attrs: argmemonly mustprogress nofree nosync nounwind willreturn
declare void @llvm.lifetime.start.p0i8(i64 immarg, i8* nocapture) #1

; Function Attrs: nofree nounwind
declare noundef i32 @__isoc99_scanf(i8* nocapture noundef readonly, ...) local_unnamed_addr #2

; Function Attrs: mustprogress nofree nounwind willreturn
declare double @cos(double) local_unnamed_addr #3

; Function Attrs: mustprogress nofree nounwind willreturn
declare double @sqrt(double) local_unnamed_addr #3

; Function Attrs: nofree nounwind
declare noundef i32 @printf(i8* nocapture noundef readonly, ...) local_unnamed_addr #2

; Function Attrs: argmemonly mustprogress nofree nosync nounwind willreturn
declare void @llvm.lifetime.end.p0i8(i64 immarg, i8* nocapture) #1


!llvm.module.flags = !{!0, !1, !2, !3}
!llvm.ident = !{!4}

!0 = !{i32 1, !"wchar_size", i32 4}
!1 = !{i32 7, !"PIC Level", i32 2}
!2 = !{i32 7, !"PIE Level", i32 2}
!3 = !{i32 7, !"uwtable", i32 1}
!4 = !{!"clang version 13.0.0"}
!5 = !{!6, !6, i64 0}
!6 = !{!"float", !7, i64 0}
!7 = !{!"omnipotent char", !8, i64 0}
!8 = !{!"Simple C/C++ TBAA"}
